target datalayout = "e-m:e-p270:32:32-p271:32:32-p272:64:64-i64:64-i128:128-f80:128-n8:16:32:64-S128"
target triple = "x86_64-pc-linux-gnu"

%struct.PJconsts = type <{ ptr, ptr, ptr, ptr, ptr, ptr, ptr, ptr, ptr, ptr, ptr, ptr, i32, [4 x i8], ptr, ptr, ptr, ptr, ptr, ptr, ptr, ptr, double, double, double, double, double, double, double, double, double, double, double, double, double, double, double, double, double, double, double, double, double, double, i32, i32, i32, i32, i32, i32, i32, i32, i32, i32, i32, [4 x i8], ptr, ptr, ptr, ptr, ptr, ptr, double, double, double, double, double, double, double, double, double, double, double, i32, [4 x i8], [7 x double], i32, [4 x i8], ptr, ptr, double, double, i32, [4 x i8], %"class.std::shared_ptr", i8, [7 x i8], double, i8, [7 x i8], %"class.std::__cxx11::basic_string", %"class.std::__cxx11::basic_string", %"class.std::__cxx11::basic_string", i8, [7 x i8], %"class.std::vector", i32, [4 x i8], %"class.std::vector.3", i32, i8, i8, i8, i8 }>
%"class.std::shared_ptr" = type { %"class.std::__shared_ptr" }
%"class.std::__shared_ptr" = type { ptr, %"class.std::__shared_count" }
%"class.std::__shared_count" = type { ptr }
%"class.std::__cxx11::basic_string" = type { %"struct.std::__cxx11::basic_string<char>::_Alloc_hider", i64, %union.anon }
%"struct.std::__cxx11::basic_string<char>::_Alloc_hider" = type { ptr }
%union.anon = type { i64, [8 x i8] }
%"class.std::vector" = type { %"struct.std::_Vector_base" }
%"struct.std::_Vector_base" = type { %"struct.std::_Vector_base<osgeo::proj::operation::GridDescription, std::allocator<osgeo::proj::operation::GridDescription>>::_Vector_impl" }
%"struct.std::_Vector_base<osgeo::proj::operation::GridDescription, std::allocator<osgeo::proj::operation::GridDescription>>::_Vector_impl" = type { %"struct.std::_Vector_base<osgeo::proj::operation::GridDescription, std::allocator<osgeo::proj::operation::GridDescription>>::_Vector_impl_data" }
%"struct.std::_Vector_base<osgeo::proj::operation::GridDescription, std::allocator<osgeo::proj::operation::GridDescription>>::_Vector_impl_data" = type { ptr, ptr, ptr }
%"class.std::vector.3" = type { %"struct.std::_Vector_base.4" }
%"struct.std::_Vector_base.4" = type { %"struct.std::_Vector_base<PJCoordOperation, std::allocator<PJCoordOperation>>::_Vector_impl" }
%"struct.std::_Vector_base<PJCoordOperation, std::allocator<PJCoordOperation>>::_Vector_impl" = type { %"struct.std::_Vector_base<PJCoordOperation, std::allocator<PJCoordOperation>>::_Vector_impl_data" }
%"struct.std::_Vector_base<PJCoordOperation, std::allocator<PJCoordOperation>>::_Vector_impl_data" = type { ptr, ptr, ptr }
%struct.PJ_LP = type { double, double }
%struct.PJ_XY = type { double, double }

@_ZL8des_eck2 = internal constant [21 x i8] c"Eckert II\0A\09PCyl, Sph\00", align 16
@pj_s_eck2 = hidden constant ptr @_ZL8des_eck2, align 8
@.str = private unnamed_addr constant [5 x i8] c"eck2\00", align 1

; Function Attrs: mustprogress uwtable
define hidden ptr @pj_eck2(ptr noundef %0) #0 {
  %2 = alloca ptr, align 8
  %3 = alloca ptr, align 8
  store ptr %0, ptr %3, align 8
  %4 = load ptr, ptr %3, align 8
  %5 = icmp ne ptr %4, null
  br i1 %5, label %6, label %9

6:                                                ; preds = %1
  %7 = load ptr, ptr %3, align 8
  %8 = call noundef ptr @_Z33pj_projection_specific_setup_eck2P8PJconsts(ptr noundef %7)
  store ptr %8, ptr %2, align 8
  br label %26

9:                                                ; preds = %1
  %10 = call noundef ptr @_Z6pj_newv()
  store ptr %10, ptr %3, align 8
  %11 = load ptr, ptr %3, align 8
  %12 = icmp eq ptr null, %11
  br i1 %12, label %13, label %14

13:                                               ; preds = %9
  store ptr null, ptr %2, align 8
  br label %26

14:                                               ; preds = %9
  %15 = load ptr, ptr %3, align 8
  %16 = getelementptr inbounds %struct.PJconsts, ptr %15, i32 0, i32 1
  store ptr @.str, ptr %16, align 8
  %17 = load ptr, ptr %3, align 8
  %18 = getelementptr inbounds %struct.PJconsts, ptr %17, i32 0, i32 2
  store ptr @_ZL8des_eck2, ptr %18, align 8
  %19 = load ptr, ptr %3, align 8
  %20 = getelementptr inbounds %struct.PJconsts, ptr %19, i32 0, i32 48
  store i32 1, ptr %20, align 8
  %21 = load ptr, ptr %3, align 8
  %22 = getelementptr inbounds %struct.PJconsts, ptr %21, i32 0, i32 53
  store i32 4, ptr %22, align 4
  %23 = load ptr, ptr %3, align 8
  %24 = getelementptr inbounds %struct.PJconsts, ptr %23, i32 0, i32 54
  store i32 1, ptr %24, align 8
  %25 = load ptr, ptr %3, align 8
  store ptr %25, ptr %2, align 8
  br label %26

26:                                               ; preds = %14, %13, %6
  %27 = load ptr, ptr %2, align 8
  ret ptr %27
}

; Function Attrs: mustprogress nounwind uwtable
define hidden noundef ptr @_Z33pj_projection_specific_setup_eck2P8PJconsts(ptr noundef %0) #1 {
  %2 = alloca ptr, align 8
  store ptr %0, ptr %2, align 8
  %3 = load ptr, ptr %2, align 8
  %4 = getelementptr inbounds %struct.PJconsts, ptr %3, i32 0, i32 28
  store double 0.000000e+00, ptr %4, align 8
  %5 = load ptr, ptr %2, align 8
  %6 = getelementptr inbounds %struct.PJconsts, ptr %5, i32 0, i32 15
  store ptr @_ZL14eck2_s_inverse5PJ_XYP8PJconsts, ptr %6, align 8
  %7 = load ptr, ptr %2, align 8
  %8 = getelementptr inbounds %struct.PJconsts, ptr %7, i32 0, i32 14
  store ptr @_ZL14eck2_s_forward5PJ_LPP8PJconsts, ptr %8, align 8
  %9 = load ptr, ptr %2, align 8
  ret ptr %9
}

declare noundef ptr @_Z6pj_newv() #2

; Function Attrs: mustprogress uwtable
define internal { double, double } @_ZL14eck2_s_inverse5PJ_XYP8PJconsts(double %0, double %1, ptr noundef %2) #0 {
  %4 = alloca %struct.PJ_LP, align 8
  %5 = alloca %struct.PJ_XY, align 8
  %6 = alloca ptr, align 8
  %7 = getelementptr inbounds { double, double }, ptr %5, i32 0, i32 0
  store double %0, ptr %7, align 8
  %8 = getelementptr inbounds { double, double }, ptr %5, i32 0, i32 1
  store double %1, ptr %8, align 8
  store ptr %2, ptr %6, align 8
  call void @llvm.memset.p0.i64(ptr align 8 %4, i8 0, i64 16, i1 false)
  %9 = getelementptr inbounds %struct.PJ_XY, ptr %5, i32 0, i32 1
  %10 = load double, ptr %9, align 8
  %11 = call double @llvm.fabs.f64(double %10)
  %12 = fdiv double %11, 0x3FF727BDD17583BB
  %13 = fsub double 2.000000e+00, %12
  %14 = getelementptr inbounds %struct.PJ_LP, ptr %4, i32 0, i32 1
  store double %13, ptr %14, align 8
  %15 = getelementptr inbounds %struct.PJ_XY, ptr %5, i32 0, i32 0
  %16 = load double, ptr %15, align 8
  %17 = getelementptr inbounds %struct.PJ_LP, ptr %4, i32 0, i32 1
  %18 = load double, ptr %17, align 8
  %19 = fmul double 0x3FDD7B6F52FAC55A, %18
  %20 = fdiv double %16, %19
  %21 = getelementptr inbounds %struct.PJ_LP, ptr %4, i32 0, i32 0
  store double %20, ptr %21, align 8
  %22 = getelementptr inbounds %struct.PJ_LP, ptr %4, i32 0, i32 1
  %23 = load double, ptr %22, align 8
  %24 = getelementptr inbounds %struct.PJ_LP, ptr %4, i32 0, i32 1
  %25 = load double, ptr %24, align 8
  %26 = fneg double %23
  %27 = call double @llvm.fmuladd.f64(double %26, double %25, double 4.000000e+00)
  %28 = fmul double %27, 0x3FD5555555555555
  %29 = getelementptr inbounds %struct.PJ_LP, ptr %4, i32 0, i32 1
  store double %28, ptr %29, align 8
  %30 = getelementptr inbounds %struct.PJ_LP, ptr %4, i32 0, i32 1
  %31 = load double, ptr %30, align 8
  %32 = call double @llvm.fabs.f64(double %31)
  %33 = fcmp oge double %32, 1.000000e+00
  br i1 %33, label %34, label %49

34:                                               ; preds = %3
  %35 = getelementptr inbounds %struct.PJ_LP, ptr %4, i32 0, i32 1
  %36 = load double, ptr %35, align 8
  %37 = call double @llvm.fabs.f64(double %36)
  %38 = fcmp ogt double %37, 0x3FF000001AD7F29B
  br i1 %38, label %39, label %42

39:                                               ; preds = %34
  %40 = load ptr, ptr %6, align 8
  %41 = call i32 @proj_errno_set(ptr noundef %40, i32 noundef 2050)
  br label %64

42:                                               ; preds = %34
  %43 = getelementptr inbounds %struct.PJ_LP, ptr %4, i32 0, i32 1
  %44 = load double, ptr %43, align 8
  %45 = fcmp olt double %44, 0.000000e+00
  %46 = select i1 %45, double 0xBFF921FB54442D18, double 0x3FF921FB54442D18
  %47 = getelementptr inbounds %struct.PJ_LP, ptr %4, i32 0, i32 1
  store double %46, ptr %47, align 8
  br label %48

48:                                               ; preds = %42
  br label %54

49:                                               ; preds = %3
  %50 = getelementptr inbounds %struct.PJ_LP, ptr %4, i32 0, i32 1
  %51 = load double, ptr %50, align 8
  %52 = call double @asin(double noundef %51) #6
  %53 = getelementptr inbounds %struct.PJ_LP, ptr %4, i32 0, i32 1
  store double %52, ptr %53, align 8
  br label %54

54:                                               ; preds = %49, %48
  %55 = getelementptr inbounds %struct.PJ_XY, ptr %5, i32 0, i32 1
  %56 = load double, ptr %55, align 8
  %57 = fcmp olt double %56, 0.000000e+00
  br i1 %57, label %58, label %63

58:                                               ; preds = %54
  %59 = getelementptr inbounds %struct.PJ_LP, ptr %4, i32 0, i32 1
  %60 = load double, ptr %59, align 8
  %61 = fneg double %60
  %62 = getelementptr inbounds %struct.PJ_LP, ptr %4, i32 0, i32 1
  store double %61, ptr %62, align 8
  br label %63

63:                                               ; preds = %58, %54
  br label %64

64:                                               ; preds = %63, %39
  %65 = load { double, double }, ptr %4, align 8
  ret { double, double } %65
}

; Function Attrs: mustprogress nounwind uwtable
define internal { double, double } @_ZL14eck2_s_forward5PJ_LPP8PJconsts(double %0, double %1, ptr noundef %2) #1 {
  %4 = alloca %struct.PJ_XY, align 8
  %5 = alloca %struct.PJ_LP, align 8
  %6 = alloca ptr, align 8
  %7 = getelementptr inbounds { double, double }, ptr %5, i32 0, i32 0
  store double %0, ptr %7, align 8
  %8 = getelementptr inbounds { double, double }, ptr %5, i32 0, i32 1
  store double %1, ptr %8, align 8
  store ptr %2, ptr %6, align 8
  call void @llvm.memset.p0.i64(ptr align 8 %4, i8 0, i64 16, i1 false)
  %9 = getelementptr inbounds %struct.PJ_LP, ptr %5, i32 0, i32 0
  %10 = load double, ptr %9, align 8
  %11 = fmul double 0x3FDD7B6F52FAC55A, %10
  %12 = getelementptr inbounds %struct.PJ_LP, ptr %5, i32 0, i32 1
  %13 = load double, ptr %12, align 8
  %14 = call double @llvm.fabs.f64(double %13)
  %15 = call double @sin(double noundef %14) #6
  %16 = call double @llvm.fmuladd.f64(double -3.000000e+00, double %15, double 4.000000e+00)
  %17 = call double @sqrt(double noundef %16) #6
  %18 = getelementptr inbounds %struct.PJ_XY, ptr %4, i32 0, i32 1
  store double %17, ptr %18, align 8
  %19 = fmul double %11, %17
  %20 = getelementptr inbounds %struct.PJ_XY, ptr %4, i32 0, i32 0
  store double %19, ptr %20, align 8
  %21 = getelementptr inbounds %struct.PJ_XY, ptr %4, i32 0, i32 1
  %22 = load double, ptr %21, align 8
  %23 = fsub double 2.000000e+00, %22
  %24 = fmul double 0x3FF727BDD17583BB, %23
  %25 = getelementptr inbounds %struct.PJ_XY, ptr %4, i32 0, i32 1
  store double %24, ptr %25, align 8
  %26 = getelementptr inbounds %struct.PJ_LP, ptr %5, i32 0, i32 1
  %27 = load double, ptr %26, align 8
  %28 = fcmp olt double %27, 0.000000e+00
  br i1 %28, label %29, label %34

29:                                               ; preds = %3
  %30 = getelementptr inbounds %struct.PJ_XY, ptr %4, i32 0, i32 1
  %31 = load double, ptr %30, align 8
  %32 = fneg double %31
  %33 = getelementptr inbounds %struct.PJ_XY, ptr %4, i32 0, i32 1
  store double %32, ptr %33, align 8
  br label %34

34:                                               ; preds = %29, %3
  %35 = load { double, double }, ptr %4, align 8
  ret { double, double } %35
}

; Function Attrs: nocallback nofree nounwind willreturn memory(argmem: write)
declare void @llvm.memset.p0.i64(ptr nocapture writeonly, i8, i64, i1 immarg) #3

; Function Attrs: nocallback nofree nosync nounwind speculatable willreturn memory(none)
declare double @llvm.fabs.f64(double) #4

; Function Attrs: nocallback nofree nosync nounwind speculatable willreturn memory(none)
declare double @llvm.fmuladd.f64(double, double, double) #4

declare i32 @proj_errno_set(ptr noundef, i32 noundef) #2

; Function Attrs: nounwind
declare double @asin(double noundef) #5

; Function Attrs: nounwind
declare double @sqrt(double noundef) #5

; Function Attrs: nounwind
declare double @sin(double noundef) #5


!llvm.module.flags = !{!0, !1, !2, !3}

!0 = !{i32 1, !"wchar_size", i32 4}
!1 = !{i32 8, !"PIC Level", i32 2}
!2 = !{i32 7, !"uwtable", i32 2}
!3 = !{i32 7, !"frame-pointer", i32 2}
